target datalayout = "e-m:e-p270:32:32-p271:32:32-p272:64:64-i64:64-i128:128-f80:128-n8:16:32:64-S128"
target triple = "x86_64-pc-linux-gnu"

%"class.std::__cxx11::basic_string" = type { %"struct.std::__cxx11::basic_string<char>::_Alloc_hider", i64, %union.anon }
%"struct.std::__cxx11::basic_string<char>::_Alloc_hider" = type { ptr }
%union.anon = type { i64, [8 x i8] }
%"class.absl::debian2::AlphaNum" = type { %"class.absl::debian2::string_view", [32 x i8] }
%"class.absl::debian2::string_view" = type { ptr, i64 }
%"class.std::initializer_list.6" = type { ptr, i64 }

; Function Attrs: mustprogress nounwind uwtable
define linkonce_odr dso_local { ptr, i64 } @_ZNK4absl7debian28AlphaNum5PieceEv(ptr noundef nonnull align 8 dereferenceable(48) %0) #1 comdat align 2 {
  %2 = alloca %"class.absl::debian2::string_view", align 8
  %3 = alloca ptr, align 8
  store ptr %0, ptr %3, align 8, !tbaa !11
  %4 = load ptr, ptr %3, align 8
  %5 = getelementptr inbounds nuw %"class.absl::debian2::AlphaNum", ptr %4, i32 0, i32 0
  call void @llvm.memcpy.p0.p0.i64(ptr align 8 %2, ptr align 8 %5, i64 16, i1 false), !tbaa.struct !24
  %6 = load { ptr, i64 }, ptr %2, align 8
  ret { ptr, i64 } %6
}

; Function Attrs: inlinehint mustprogress uwtable
define linkonce_odr dso_local void @_ZN4absl7debian26StrCatIJN4i18n12phonenumbers12StringHolderES4_S4_S4_S4_S4_S4_S4_S4_S4_EEENSt7__cxx1112basic_stringIcSt11char_traitsIcESaIcEEERKNS0_8AlphaNumESD_SD_SD_SD_DpRKT_(ptr dead_on_unwind noalias writable sret(%"class.std::__cxx11::basic_string") align 8 %0, ptr noundef nonnull align 8 dereferenceable(48) %1, ptr noundef nonnull align 8 dereferenceable(48) %2, ptr noundef nonnull align 8 dereferenceable(48) %3, ptr noundef nonnull align 8 dereferenceable(48) %4, ptr noundef nonnull align 8 dereferenceable(48) %5, ptr noundef nonnull align 8 dereferenceable(48) %6, ptr noundef nonnull align 8 dereferenceable(48) %7, ptr noundef nonnull align 8 dereferenceable(48) %8, ptr noundef nonnull align 8 dereferenceable(48) %9, ptr noundef nonnull align 8 dereferenceable(48) %10, ptr noundef nonnull align 8 dereferenceable(48) %11, ptr noundef nonnull align 8 dereferenceable(48) %12, ptr noundef nonnull align 8 dereferenceable(48) %13, ptr noundef nonnull align 8 dereferenceable(48) %14, ptr noundef nonnull align 8 dereferenceable(48) %15) #4 comdat {
  %17 = alloca ptr, align 8
  %18 = alloca ptr, align 8
  %19 = alloca ptr, align 8
  %20 = alloca ptr, align 8
  %21 = alloca ptr, align 8
  %22 = alloca ptr, align 8
  %23 = alloca ptr, align 8
  %24 = alloca ptr, align 8
  %25 = alloca ptr, align 8
  %26 = alloca ptr, align 8
  %27 = alloca ptr, align 8
  %28 = alloca ptr, align 8
  %29 = alloca ptr, align 8
  %30 = alloca ptr, align 8
  %31 = alloca ptr, align 8
  %32 = alloca ptr, align 8
  %33 = alloca %"class.std::initializer_list.6", align 8
  %34 = alloca [15 x %"class.absl::debian2::string_view"], align 8
  store ptr %0, ptr %17, align 8
  store ptr %1, ptr %18, align 8, !tbaa !11
  store ptr %2, ptr %19, align 8, !tbaa !11
  store ptr %3, ptr %20, align 8, !tbaa !11
  store ptr %4, ptr %21, align 8, !tbaa !11
  store ptr %5, ptr %22, align 8, !tbaa !11
  store ptr %6, ptr %23, align 8, !tbaa !70
  store ptr %7, ptr %24, align 8, !tbaa !70
  store ptr %8, ptr %25, align 8, !tbaa !70
  store ptr %9, ptr %26, align 8, !tbaa !70
  store ptr %10, ptr %27, align 8, !tbaa !70
  store ptr %11, ptr %28, align 8, !tbaa !70
  store ptr %12, ptr %29, align 8, !tbaa !70
  store ptr %13, ptr %30, align 8, !tbaa !70
  store ptr %14, ptr %31, align 8, !tbaa !70
  store ptr %15, ptr %32, align 8, !tbaa !70
  call void @llvm.lifetime.start.p0(i64 240, ptr %34) #16
  %35 = load ptr, ptr %18, align 8, !tbaa !11
  %36 = call { ptr, i64 } @_ZNK4absl7debian28AlphaNum5PieceEv(ptr noundef nonnull align 8 dereferenceable(48) %35)
  %37 = getelementptr inbounds nuw { ptr, i64 }, ptr %34, i32 0, i32 0
  %38 = extractvalue { ptr, i64 } %36, 0
  store ptr %38, ptr %37, align 8
  %39 = getelementptr inbounds nuw { ptr, i64 }, ptr %34, i32 0, i32 1
  %40 = extractvalue { ptr, i64 } %36, 1
  store i64 %40, ptr %39, align 8
  %41 = getelementptr inbounds %"class.absl::debian2::string_view", ptr %34, i64 1
  %42 = load ptr, ptr %19, align 8, !tbaa !11
  %43 = call { ptr, i64 } @_ZNK4absl7debian28AlphaNum5PieceEv(ptr noundef nonnull align 8 dereferenceable(48) %42)
  %44 = getelementptr inbounds nuw { ptr, i64 }, ptr %41, i32 0, i32 0
  %45 = extractvalue { ptr, i64 } %43, 0
  store ptr %45, ptr %44, align 8
  %46 = getelementptr inbounds nuw { ptr, i64 }, ptr %41, i32 0, i32 1
  %47 = extractvalue { ptr, i64 } %43, 1
  store i64 %47, ptr %46, align 8
  %48 = getelementptr inbounds %"class.absl::debian2::string_view", ptr %34, i64 2
  %49 = load ptr, ptr %20, align 8, !tbaa !11
  %50 = call { ptr, i64 } @_ZNK4absl7debian28AlphaNum5PieceEv(ptr noundef nonnull align 8 dereferenceable(48) %49)
  %51 = getelementptr inbounds nuw { ptr, i64 }, ptr %48, i32 0, i32 0
  %52 = extractvalue { ptr, i64 } %50, 0
  store ptr %52, ptr %51, align 8
  %53 = getelementptr inbounds nuw { ptr, i64 }, ptr %48, i32 0, i32 1
  %54 = extractvalue { ptr, i64 } %50, 1
  store i64 %54, ptr %53, align 8
  %55 = getelementptr inbounds %"class.absl::debian2::string_view", ptr %34, i64 3
  %56 = load ptr, ptr %21, align 8, !tbaa !11
  %57 = call { ptr, i64 } @_ZNK4absl7debian28AlphaNum5PieceEv(ptr noundef nonnull align 8 dereferenceable(48) %56)
  %58 = getelementptr inbounds nuw { ptr, i64 }, ptr %55, i32 0, i32 0
  %59 = extractvalue { ptr, i64 } %57, 0
  store ptr %59, ptr %58, align 8
  %60 = getelementptr inbounds nuw { ptr, i64 }, ptr %55, i32 0, i32 1
  %61 = extractvalue { ptr, i64 } %57, 1
  store i64 %61, ptr %60, align 8
  %62 = getelementptr inbounds %"class.absl::debian2::string_view", ptr %34, i64 4
  %63 = load ptr, ptr %22, align 8, !tbaa !11
  %64 = call { ptr, i64 } @_ZNK4absl7debian28AlphaNum5PieceEv(ptr noundef nonnull align 8 dereferenceable(48) %63)
  %65 = getelementptr inbounds nuw { ptr, i64 }, ptr %62, i32 0, i32 0
  %66 = extractvalue { ptr, i64 } %64, 0
  store ptr %66, ptr %65, align 8
  %67 = getelementptr inbounds nuw { ptr, i64 }, ptr %62, i32 0, i32 1
  %68 = extractvalue { ptr, i64 } %64, 1
  store i64 %68, ptr %67, align 8
  %69 = getelementptr inbounds %"class.absl::debian2::string_view", ptr %34, i64 5
  %70 = load ptr, ptr %23, align 8, !tbaa !70
  %71 = call { ptr, i64 } @_ZNK4absl7debian28AlphaNum5PieceEv(ptr noundef nonnull align 8 dereferenceable(48) %70)
  %72 = getelementptr inbounds nuw { ptr, i64 }, ptr %69, i32 0, i32 0
  %73 = extractvalue { ptr, i64 } %71, 0
  store ptr %73, ptr %72, align 8
  %74 = getelementptr inbounds nuw { ptr, i64 }, ptr %69, i32 0, i32 1
  %75 = extractvalue { ptr, i64 } %71, 1
  store i64 %75, ptr %74, align 8
  %76 = getelementptr inbounds %"class.absl::debian2::string_view", ptr %34, i64 6
  %77 = load ptr, ptr %24, align 8, !tbaa !70
  %78 = call { ptr, i64 } @_ZNK4absl7debian28AlphaNum5PieceEv(ptr noundef nonnull align 8 dereferenceable(48) %77)
  %79 = getelementptr inbounds nuw { ptr, i64 }, ptr %76, i32 0, i32 0
  %80 = extractvalue { ptr, i64 } %78, 0
  store ptr %80, ptr %79, align 8
  %81 = getelementptr inbounds nuw { ptr, i64 }, ptr %76, i32 0, i32 1
  %82 = extractvalue { ptr, i64 } %78, 1
  store i64 %82, ptr %81, align 8
  %83 = getelementptr inbounds %"class.absl::debian2::string_view", ptr %34, i64 7
  %84 = load ptr, ptr %25, align 8, !tbaa !70
  %85 = call { ptr, i64 } @_ZNK4absl7debian28AlphaNum5PieceEv(ptr noundef nonnull align 8 dereferenceable(48) %84)
  %86 = getelementptr inbounds nuw { ptr, i64 }, ptr %83, i32 0, i32 0
  %87 = extractvalue { ptr, i64 } %85, 0
  store ptr %87, ptr %86, align 8
  %88 = getelementptr inbounds nuw { ptr, i64 }, ptr %83, i32 0, i32 1
  %89 = extractvalue { ptr, i64 } %85, 1
  store i64 %89, ptr %88, align 8
  %90 = getelementptr inbounds %"class.absl::debian2::string_view", ptr %34, i64 8
  %91 = load ptr, ptr %26, align 8, !tbaa !70
  %92 = call { ptr, i64 } @_ZNK4absl7debian28AlphaNum5PieceEv(ptr noundef nonnull align 8 dereferenceable(48) %91)
  %93 = getelementptr inbounds nuw { ptr, i64 }, ptr %90, i32 0, i32 0
  %94 = extractvalue { ptr, i64 } %92, 0
  store ptr %94, ptr %93, align 8
  %95 = getelementptr inbounds nuw { ptr, i64 }, ptr %90, i32 0, i32 1
  %96 = extractvalue { ptr, i64 } %92, 1
  store i64 %96, ptr %95, align 8
  %97 = getelementptr inbounds %"class.absl::debian2::string_view", ptr %34, i64 9
  %98 = load ptr, ptr %27, align 8, !tbaa !70
  %99 = call { ptr, i64 } @_ZNK4absl7debian28AlphaNum5PieceEv(ptr noundef nonnull align 8 dereferenceable(48) %98)
  %100 = getelementptr inbounds nuw { ptr, i64 }, ptr %97, i32 0, i32 0
  %101 = extractvalue { ptr, i64 } %99, 0
  store ptr %101, ptr %100, align 8
  %102 = getelementptr inbounds nuw { ptr, i64 }, ptr %97, i32 0, i32 1
  %103 = extractvalue { ptr, i64 } %99, 1
  store i64 %103, ptr %102, align 8
  %104 = getelementptr inbounds %"class.absl::debian2::string_view", ptr %34, i64 10
  %105 = load ptr, ptr %28, align 8, !tbaa !70
  %106 = call { ptr, i64 } @_ZNK4absl7debian28AlphaNum5PieceEv(ptr noundef nonnull align 8 dereferenceable(48) %105)
  %107 = getelementptr inbounds nuw { ptr, i64 }, ptr %104, i32 0, i32 0
  %108 = extractvalue { ptr, i64 } %106, 0
  store ptr %108, ptr %107, align 8
  %109 = getelementptr inbounds nuw { ptr, i64 }, ptr %104, i32 0, i32 1
  %110 = extractvalue { ptr, i64 } %106, 1
  store i64 %110, ptr %109, align 8
  %111 = getelementptr inbounds %"class.absl::debian2::string_view", ptr %34, i64 11
  %112 = load ptr, ptr %29, align 8, !tbaa !70
  %113 = call { ptr, i64 } @_ZNK4absl7debian28AlphaNum5PieceEv(ptr noundef nonnull align 8 dereferenceable(48) %112)
  %114 = getelementptr inbounds nuw { ptr, i64 }, ptr %111, i32 0, i32 0
  %115 = extractvalue { ptr, i64 } %113, 0
  store ptr %115, ptr %114, align 8
  %116 = getelementptr inbounds nuw { ptr, i64 }, ptr %111, i32 0, i32 1
  %117 = extractvalue { ptr, i64 } %113, 1
  store i64 %117, ptr %116, align 8
  %118 = getelementptr inbounds %"class.absl::debian2::string_view", ptr %34, i64 12
  %119 = load ptr, ptr %30, align 8, !tbaa !70
  %120 = call { ptr, i64 } @_ZNK4absl7debian28AlphaNum5PieceEv(ptr noundef nonnull align 8 dereferenceable(48) %119)
  %121 = getelementptr inbounds nuw { ptr, i64 }, ptr %118, i32 0, i32 0
  %122 = extractvalue { ptr, i64 } %120, 0
  store ptr %122, ptr %121, align 8
  %123 = getelementptr inbounds nuw { ptr, i64 }, ptr %118, i32 0, i32 1
  %124 = extractvalue { ptr, i64 } %120, 1
  store i64 %124, ptr %123, align 8
  %125 = getelementptr inbounds %"class.absl::debian2::string_view", ptr %34, i64 13
  %126 = load ptr, ptr %31, align 8, !tbaa !70
  %127 = call { ptr, i64 } @_ZNK4absl7debian28AlphaNum5PieceEv(ptr noundef nonnull align 8 dereferenceable(48) %126)
  %128 = getelementptr inbounds nuw { ptr, i64 }, ptr %125, i32 0, i32 0
  %129 = extractvalue { ptr, i64 } %127, 0
  store ptr %129, ptr %128, align 8
  %130 = getelementptr inbounds nuw { ptr, i64 }, ptr %125, i32 0, i32 1
  %131 = extractvalue { ptr, i64 } %127, 1
  store i64 %131, ptr %130, align 8
  %132 = getelementptr inbounds %"class.absl::debian2::string_view", ptr %34, i64 14
  %133 = load ptr, ptr %32, align 8, !tbaa !70
  %134 = call { ptr, i64 } @_ZNK4absl7debian28AlphaNum5PieceEv(ptr noundef nonnull align 8 dereferenceable(48) %133)
  %135 = getelementptr inbounds nuw { ptr, i64 }, ptr %132, i32 0, i32 0
  %136 = extractvalue { ptr, i64 } %134, 0
  store ptr %136, ptr %135, align 8
  %137 = getelementptr inbounds nuw { ptr, i64 }, ptr %132, i32 0, i32 1
  %138 = extractvalue { ptr, i64 } %134, 1
  store i64 %138, ptr %137, align 8
  %139 = getelementptr inbounds nuw %"class.std::initializer_list.6", ptr %33, i32 0, i32 0
  store ptr %34, ptr %139, align 8, !tbaa !74
  %140 = getelementptr inbounds nuw %"class.std::initializer_list.6", ptr %33, i32 0, i32 1
  store i64 15, ptr %140, align 8, !tbaa !76
  %141 = getelementptr inbounds nuw { ptr, i64 }, ptr %33, i32 0, i32 0
  %142 = load ptr, ptr %141, align 8
  %143 = getelementptr inbounds nuw { ptr, i64 }, ptr %33, i32 0, i32 1
  %144 = load i64, ptr %143, align 8
  call void @_ZN4absl7debian216strings_internal9CatPiecesB5cxx11ESt16initializer_listINS0_11string_viewEE(ptr dead_on_unwind writable sret(%"class.std::__cxx11::basic_string") align 8 %0, ptr %142, i64 %144)
  call void @llvm.lifetime.end.p0(i64 240, ptr %34) #16
  ret void
}

; Function Attrs: mustprogress uwtable
define dso_local void @_ZN4i18n12phonenumbers6StrCatB5cxx11ERKNS0_12StringHolderES3_S3_S3_S3_S3_S3_S3_S3_S3_S3_S3_S3_S3_S3_(ptr dead_on_unwind noalias writable sret(%"class.std::__cxx11::basic_string") align 8 %0, ptr noundef nonnull align 8 dereferenceable(48) %1, ptr noundef nonnull align 8 dereferenceable(48) %2, ptr noundef nonnull align 8 dereferenceable(48) %3, ptr noundef nonnull align 8 dereferenceable(48) %4, ptr noundef nonnull align 8 dereferenceable(48) %5, ptr noundef nonnull align 8 dereferenceable(48) %6, ptr noundef nonnull align 8 dereferenceable(48) %7, ptr noundef nonnull align 8 dereferenceable(48) %8, ptr noundef nonnull align 8 dereferenceable(48) %9, ptr noundef nonnull align 8 dereferenceable(48) %10, ptr noundef nonnull align 8 dereferenceable(48) %11, ptr noundef nonnull align 8 dereferenceable(48) %12, ptr noundef nonnull align 8 dereferenceable(48) %13, ptr noundef nonnull align 8 dereferenceable(48) %14, ptr noundef nonnull align 8 dereferenceable(48) %15) #0 {
  %17 = alloca ptr, align 8
  %18 = alloca ptr, align 8
  %19 = alloca ptr, align 8
  %20 = alloca ptr, align 8
  %21 = alloca ptr, align 8
  %22 = alloca ptr, align 8
  %23 = alloca ptr, align 8
  %24 = alloca ptr, align 8
  %25 = alloca ptr, align 8
  %26 = alloca ptr, align 8
  %27 = alloca ptr, align 8
  %28 = alloca ptr, align 8
  %29 = alloca ptr, align 8
  %30 = alloca ptr, align 8
  %31 = alloca ptr, align 8
  %32 = alloca ptr, align 8
  store ptr %0, ptr %17, align 8
  store ptr %1, ptr %18, align 8, !tbaa !70
  store ptr %2, ptr %19, align 8, !tbaa !70
  store ptr %3, ptr %20, align 8, !tbaa !70
  store ptr %4, ptr %21, align 8, !tbaa !70
  store ptr %5, ptr %22, align 8, !tbaa !70
  store ptr %6, ptr %23, align 8, !tbaa !70
  store ptr %7, ptr %24, align 8, !tbaa !70
  store ptr %8, ptr %25, align 8, !tbaa !70
  store ptr %9, ptr %26, align 8, !tbaa !70
  store ptr %10, ptr %27, align 8, !tbaa !70
  store ptr %11, ptr %28, align 8, !tbaa !70
  store ptr %12, ptr %29, align 8, !tbaa !70
  store ptr %13, ptr %30, align 8, !tbaa !70
  store ptr %14, ptr %31, align 8, !tbaa !70
  store ptr %15, ptr %32, align 8, !tbaa !70
  %33 = load ptr, ptr %18, align 8, !tbaa !70
  %34 = load ptr, ptr %19, align 8, !tbaa !70
  %35 = load ptr, ptr %20, align 8, !tbaa !70
  %36 = load ptr, ptr %21, align 8, !tbaa !70
  %37 = load ptr, ptr %22, align 8, !tbaa !70
  %38 = load ptr, ptr %23, align 8, !tbaa !70
  %39 = load ptr, ptr %24, align 8, !tbaa !70
  %40 = load ptr, ptr %25, align 8, !tbaa !70
  %41 = load ptr, ptr %26, align 8, !tbaa !70
  %42 = load ptr, ptr %27, align 8, !tbaa !70
  %43 = load ptr, ptr %28, align 8, !tbaa !70
  %44 = load ptr, ptr %29, align 8, !tbaa !70
  %45 = load ptr, ptr %30, align 8, !tbaa !70
  %46 = load ptr, ptr %31, align 8, !tbaa !70
  %47 = load ptr, ptr %32, align 8, !tbaa !70
  call void @_ZN4absl7debian26StrCatIJN4i18n12phonenumbers12StringHolderES4_S4_S4_S4_S4_S4_S4_S4_S4_EEENSt7__cxx1112basic_stringIcSt11char_traitsIcESaIcEEERKNS0_8AlphaNumESD_SD_SD_SD_DpRKT_(ptr dead_on_unwind writable sret(%"class.std::__cxx11::basic_string") align 8 %0, ptr noundef nonnull align 8 dereferenceable(48) %33, ptr noundef nonnull align 8 dereferenceable(48) %34, ptr noundef nonnull align 8 dereferenceable(48) %35, ptr noundef nonnull align 8 dereferenceable(48) %36, ptr noundef nonnull align 8 dereferenceable(48) %37, ptr noundef nonnull align 8 dereferenceable(48) %38, ptr noundef nonnull align 8 dereferenceable(48) %39, ptr noundef nonnull align 8 dereferenceable(48) %40, ptr noundef nonnull align 8 dereferenceable(48) %41, ptr noundef nonnull align 8 dereferenceable(48) %42, ptr noundef nonnull align 8 dereferenceable(48) %43, ptr noundef nonnull align 8 dereferenceable(48) %44, ptr noundef nonnull align 8 dereferenceable(48) %45, ptr noundef nonnull align 8 dereferenceable(48) %46, ptr noundef nonnull align 8 dereferenceable(48) %47)
  ret void
}