; Function Attrs: mustprogress uwtable
define dso_local void @_ZN4i18n12phonenumbers6StrCatB5cxx11ERKNS0_12StringHolderES3_S3_S3_S3_S3_S3_S3_S3_S3_S3_S3_S3_S3_S3_(ptr dead_on_unwind noalias writable sret(%"class.std::__cxx11::basic_string") align 8 %0, ptr noundef nonnull readonly align 8 captures(none) dereferenceable(48) %1, ptr noundef nonnull readonly align 8 captures(none) dereferenceable(48) %2, ptr noundef nonnull readonly align 8 captures(none) dereferenceable(48) %3, ptr noundef nonnull readonly align 8 captures(none) dereferenceable(48) %4, ptr noundef nonnull readonly align 8 captures(none) dereferenceable(48) %5, ptr noundef nonnull readonly align 8 captures(none) dereferenceable(48) %6, ptr noundef nonnull readonly align 8 captures(none) dereferenceable(48) %7, ptr noundef nonnull readonly align 8 captures(none) dereferenceable(48) %8, ptr noundef nonnull readonly align 8 captures(none) dereferenceable(48) %9, ptr noundef nonnull readonly align 8 captures(none) dereferenceable(48) %10, ptr noundef nonnull readonly align 8 captures(none) dereferenceable(48) %11, ptr noundef nonnull readonly align 8 captures(none) dereferenceable(48) %12, ptr noundef nonnull readonly align 8 captures(none) dereferenceable(48) %13, ptr noundef nonnull readonly align 8 captures(none) dereferenceable(48) %14, ptr noundef nonnull readonly align 8 captures(none) dereferenceable(48) %15) local_unnamed_addr #0 {
  %17 = alloca [15 x %"class.absl::debian2::string_view"], align 8
  call void @llvm.lifetime.start.p0(i64 240, ptr nonnull %17) #19, !noalias !91
  %.sroa.0.0.copyload.i.i = load ptr, ptr %1, align 8, !tbaa !31, !noalias !91
  %.sroa.2.0..sroa_idx.i.i = getelementptr inbounds nuw i8, ptr %1, i64 8
  %.sroa.2.0.copyload.i.i = load i64, ptr %.sroa.2.0..sroa_idx.i.i, align 8, !tbaa !22, !noalias !91
  store ptr %.sroa.0.0.copyload.i.i, ptr %17, align 8, !noalias !91
  %18 = getelementptr inbounds nuw i8, ptr %17, i64 8
  store i64 %.sroa.2.0.copyload.i.i, ptr %18, align 8, !noalias !91
  %19 = getelementptr inbounds nuw i8, ptr %17, i64 16
  %.sroa.0.0.copyload.i15.i = load ptr, ptr %2, align 8, !tbaa !31, !noalias !91
  %.sroa.2.0..sroa_idx.i16.i = getelementptr inbounds nuw i8, ptr %2, i64 8
  %.sroa.2.0.copyload.i17.i = load i64, ptr %.sroa.2.0..sroa_idx.i16.i, align 8, !tbaa !22, !noalias !91
  store ptr %.sroa.0.0.copyload.i15.i, ptr %19, align 8, !noalias !91
  %20 = getelementptr inbounds nuw i8, ptr %17, i64 24
  store i64 %.sroa.2.0.copyload.i17.i, ptr %20, align 8, !noalias !91
  %21 = getelementptr inbounds nuw i8, ptr %17, i64 32
  %.sroa.0.0.copyload.i20.i = load ptr, ptr %3, align 8, !tbaa !31, !noalias !91
  %.sroa.2.0..sroa_idx.i21.i = getelementptr inbounds nuw i8, ptr %3, i64 8
  %.sroa.2.0.copyload.i22.i = load i64, ptr %.sroa.2.0..sroa_idx.i21.i, align 8, !tbaa !22, !noalias !91
  store ptr %.sroa.0.0.copyload.i20.i, ptr %21, align 8, !noalias !91
  %22 = getelementptr inbounds nuw i8, ptr %17, i64 40
  store i64 %.sroa.2.0.copyload.i22.i, ptr %22, align 8, !noalias !91
  %23 = getelementptr inbounds nuw i8, ptr %17, i64 48
  %.sroa.0.0.copyload.i25.i = load ptr, ptr %4, align 8, !tbaa !31, !noalias !91
  %.sroa.2.0..sroa_idx.i26.i = getelementptr inbounds nuw i8, ptr %4, i64 8
  %.sroa.2.0.copyload.i27.i = load i64, ptr %.sroa.2.0..sroa_idx.i26.i, align 8, !tbaa !22, !noalias !91
  store ptr %.sroa.0.0.copyload.i25.i, ptr %23, align 8, !noalias !91
  %24 = getelementptr inbounds nuw i8, ptr %17, i64 56
  store i64 %.sroa.2.0.copyload.i27.i, ptr %24, align 8, !noalias !91
  %25 = getelementptr inbounds nuw i8, ptr %17, i64 64
  %.sroa.0.0.copyload.i30.i = load ptr, ptr %5, align 8, !tbaa !31, !noalias !91
  %.sroa.2.0..sroa_idx.i31.i = getelementptr inbounds nuw i8, ptr %5, i64 8
  %.sroa.2.0.copyload.i32.i = load i64, ptr %.sroa.2.0..sroa_idx.i31.i, align 8, !tbaa !22, !noalias !91
  store ptr %.sroa.0.0.copyload.i30.i, ptr %25, align 8, !noalias !91
  %26 = getelementptr inbounds nuw i8, ptr %17, i64 72
  store i64 %.sroa.2.0.copyload.i32.i, ptr %26, align 8, !noalias !91
  %27 = getelementptr inbounds nuw i8, ptr %17, i64 80
  %.sroa.0.0.copyload.i35.i = load ptr, ptr %6, align 8, !tbaa !31, !noalias !91
  %.sroa.2.0..sroa_idx.i36.i = getelementptr inbounds nuw i8, ptr %6, i64 8
  %.sroa.2.0.copyload.i37.i = load i64, ptr %.sroa.2.0..sroa_idx.i36.i, align 8, !tbaa !22, !noalias !91
  store ptr %.sroa.0.0.copyload.i35.i, ptr %27, align 8, !noalias !91
  %28 = getelementptr inbounds nuw i8, ptr %17, i64 88
  store i64 %.sroa.2.0.copyload.i37.i, ptr %28, align 8, !noalias !91
  %29 = getelementptr inbounds nuw i8, ptr %17, i64 96
  %.sroa.0.0.copyload.i40.i = load ptr, ptr %7, align 8, !tbaa !31, !noalias !91
  %.sroa.2.0..sroa_idx.i41.i = getelementptr inbounds nuw i8, ptr %7, i64 8
  %.sroa.2.0.copyload.i42.i = load i64, ptr %.sroa.2.0..sroa_idx.i41.i, align 8, !tbaa !22, !noalias !91
  store ptr %.sroa.0.0.copyload.i40.i, ptr %29, align 8, !noalias !91
  %30 = getelementptr inbounds nuw i8, ptr %17, i64 104
  store i64 %.sroa.2.0.copyload.i42.i, ptr %30, align 8, !noalias !91
  %31 = getelementptr inbounds nuw i8, ptr %17, i64 112
  %.sroa.0.0.copyload.i45.i = load ptr, ptr %8, align 8, !tbaa !31, !noalias !91
  %.sroa.2.0..sroa_idx.i46.i = getelementptr inbounds nuw i8, ptr %8, i64 8
  %.sroa.2.0.copyload.i47.i = load i64, ptr %.sroa.2.0..sroa_idx.i46.i, align 8, !tbaa !22, !noalias !91
  store ptr %.sroa.0.0.copyload.i45.i, ptr %31, align 8, !noalias !91
  %32 = getelementptr inbounds nuw i8, ptr %17, i64 120
  store i64 %.sroa.2.0.copyload.i47.i, ptr %32, align 8, !noalias !91
  %33 = getelementptr inbounds nuw i8, ptr %17, i64 128
  %.sroa.0.0.copyload.i50.i = load ptr, ptr %9, align 8, !tbaa !31, !noalias !91
  %.sroa.2.0..sroa_idx.i51.i = getelementptr inbounds nuw i8, ptr %9, i64 8
  %.sroa.2.0.copyload.i52.i = load i64, ptr %.sroa.2.0..sroa_idx.i51.i, align 8, !tbaa !22, !noalias !91
  store ptr %.sroa.0.0.copyload.i50.i, ptr %33, align 8, !noalias !91
  %34 = getelementptr inbounds nuw i8, ptr %17, i64 136
  store i64 %.sroa.2.0.copyload.i52.i, ptr %34, align 8, !noalias !91
  %35 = getelementptr inbounds nuw i8, ptr %17, i64 144
  %.sroa.0.0.copyload.i55.i = load ptr, ptr %10, align 8, !tbaa !31, !noalias !91
  %.sroa.2.0..sroa_idx.i56.i = getelementptr inbounds nuw i8, ptr %10, i64 8
  %.sroa.2.0.copyload.i57.i = load i64, ptr %.sroa.2.0..sroa_idx.i56.i, align 8, !tbaa !22, !noalias !91
  store ptr %.sroa.0.0.copyload.i55.i, ptr %35, align 8, !noalias !91
  %36 = getelementptr inbounds nuw i8, ptr %17, i64 152
  store i64 %.sroa.2.0.copyload.i57.i, ptr %36, align 8, !noalias !91
  %37 = getelementptr inbounds nuw i8, ptr %17, i64 160
  %.sroa.0.0.copyload.i60.i = load ptr, ptr %11, align 8, !tbaa !31, !noalias !91
  %.sroa.2.0..sroa_idx.i61.i = getelementptr inbounds nuw i8, ptr %11, i64 8
  %.sroa.2.0.copyload.i62.i = load i64, ptr %.sroa.2.0..sroa_idx.i61.i, align 8, !tbaa !22, !noalias !91
  store ptr %.sroa.0.0.copyload.i60.i, ptr %37, align 8, !noalias !91
  %38 = getelementptr inbounds nuw i8, ptr %17, i64 168
  store i64 %.sroa.2.0.copyload.i62.i, ptr %38, align 8, !noalias !91
  %39 = getelementptr inbounds nuw i8, ptr %17, i64 176
  %.sroa.0.0.copyload.i65.i = load ptr, ptr %12, align 8, !tbaa !31, !noalias !91
  %.sroa.2.0..sroa_idx.i66.i = getelementptr inbounds nuw i8, ptr %12, i64 8
  %.sroa.2.0.copyload.i67.i = load i64, ptr %.sroa.2.0..sroa_idx.i66.i, align 8, !tbaa !22, !noalias !91
  store ptr %.sroa.0.0.copyload.i65.i, ptr %39, align 8, !noalias !91
  %40 = getelementptr inbounds nuw i8, ptr %17, i64 184
  store i64 %.sroa.2.0.copyload.i67.i, ptr %40, align 8, !noalias !91
  %41 = getelementptr inbounds nuw i8, ptr %17, i64 192
  %.sroa.0.0.copyload.i70.i = load ptr, ptr %13, align 8, !tbaa !31, !noalias !91
  %.sroa.2.0..sroa_idx.i71.i = getelementptr inbounds nuw i8, ptr %13, i64 8
  %.sroa.2.0.copyload.i72.i = load i64, ptr %.sroa.2.0..sroa_idx.i71.i, align 8, !tbaa !22, !noalias !91
  store ptr %.sroa.0.0.copyload.i70.i, ptr %41, align 8, !noalias !91
  %42 = getelementptr inbounds nuw i8, ptr %17, i64 200
  store i64 %.sroa.2.0.copyload.i72.i, ptr %42, align 8, !noalias !91
  %43 = getelementptr inbounds nuw i8, ptr %17, i64 208
  %.sroa.0.0.copyload.i75.i = load ptr, ptr %14, align 8, !tbaa !31, !noalias !91
  %.sroa.2.0..sroa_idx.i76.i = getelementptr inbounds nuw i8, ptr %14, i64 8
  %.sroa.2.0.copyload.i77.i = load i64, ptr %.sroa.2.0..sroa_idx.i76.i, align 8, !tbaa !22, !noalias !91
  store ptr %.sroa.0.0.copyload.i75.i, ptr %43, align 8, !noalias !91
  %44 = getelementptr inbounds nuw i8, ptr %17, i64 216
  store i64 %.sroa.2.0.copyload.i77.i, ptr %44, align 8, !noalias !91
  %45 = getelementptr inbounds nuw i8, ptr %17, i64 224
  %.sroa.0.0.copyload.i80.i = load ptr, ptr %15, align 8, !tbaa !31, !noalias !91
  %.sroa.2.0..sroa_idx.i81.i = getelementptr inbounds nuw i8, ptr %15, i64 8
  %.sroa.2.0.copyload.i82.i = load i64, ptr %.sroa.2.0..sroa_idx.i81.i, align 8, !tbaa !22, !noalias !91
  store ptr %.sroa.0.0.copyload.i80.i, ptr %45, align 8, !noalias !91
  %46 = getelementptr inbounds nuw i8, ptr %17, i64 232
  store i64 %.sroa.2.0.copyload.i82.i, ptr %46, align 8, !noalias !91
  call void @_ZN4absl7debian216strings_internal9CatPiecesB5cxx11ESt16initializer_listINS0_11string_viewEE(ptr dead_on_unwind writable sret(%"class.std::__cxx11::basic_string") align 8 %0, ptr nonnull %17, i64 15)
  call void @llvm.lifetime.end.p0(i64 240, ptr nonnull %17) #19, !noalias !91
  ret void
}